target datalayout = "e-m:e-p270:32:32-p271:32:32-p272:64:64-i64:64-i128:128-f80:128-n8:16:32:64-S128"
target triple = "x86_64-pc-linux-gnu"

%"class.vcg::Point3" = type { [3 x float] }
%"class.vcg::face::VertexRef" = type { %"class.vcg::Arity1", [3 x ptr] }
%"class.vcg::Arity1" = type { %"class.vcg::face::InfoOcf" }
%"class.vcg::face::InfoOcf" = type { ptr }
%"class.vcg::vertex::Coord" = type <{ %"class.vcg::Arity1.44", %"class.vcg::Point3", [4 x i8] }>
%"class.vcg::Arity1.44" = type { %"class.vcg::vertex::InfoOcf" }
%"class.vcg::vertex::InfoOcf" = type { ptr }

; Function Attrs: mustprogress nounwind uwtable
define linkonce_odr void @_ZN3vcg6Point3IfEC2Efff(ptr noundef nonnull align 4 dereferenceable(12) %0, float noundef %1, float noundef %2, float noundef %3) unnamed_addr #4 comdat align 2 {
  %5 = alloca ptr, align 8
  %6 = alloca float, align 4
  %7 = alloca float, align 4
  %8 = alloca float, align 4
  store ptr %0, ptr %5, align 8
  store float %1, ptr %6, align 4
  store float %2, ptr %7, align 4
  store float %3, ptr %8, align 4
  %9 = load ptr, ptr %5, align 8
  %10 = load float, ptr %6, align 4
  %11 = getelementptr inbounds %"class.vcg::Point3", ptr %9, i32 0, i32 0
  %12 = getelementptr inbounds [3 x float], ptr %11, i64 0, i64 0
  store float %10, ptr %12, align 4
  %13 = load float, ptr %7, align 4
  %14 = getelementptr inbounds %"class.vcg::Point3", ptr %9, i32 0, i32 0
  %15 = getelementptr inbounds [3 x float], ptr %14, i64 0, i64 1
  store float %13, ptr %15, align 4
  %16 = load float, ptr %8, align 4
  %17 = getelementptr inbounds %"class.vcg::Point3", ptr %9, i32 0, i32 0
  %18 = getelementptr inbounds [3 x float], ptr %17, i64 0, i64 2
  store float %16, ptr %18, align 4
  ret void
}

; Function Attrs: mustprogress nounwind uwtable
define linkonce_odr noundef nonnull align 4 dereferenceable(12) ptr @_ZN3vcg6vertex5CoordINS_6Point3IfEENS_6Arity1INS0_9EmptyCoreI11CUsedTypesOEENS0_7InfoOcfEEEE1PEv(ptr noundef nonnull align 8 dereferenceable(20) %0) #4 comdat align 2 {
  %2 = alloca ptr, align 8
  store ptr %0, ptr %2, align 8
  %3 = load ptr, ptr %2, align 8
  %4 = getelementptr inbounds %"class.vcg::vertex::Coord", ptr %3, i32 0, i32 1
  ret ptr %4
}

; Function Attrs: mustprogress uwtable
define linkonce_odr { <2 x float>, float } @_ZNK3vcg6Point3IfEplERKS1_(ptr noundef nonnull align 4 dereferenceable(12) %0, ptr noundef nonnull align 4 dereferenceable(12) %1) #5 comdat align 2 {
  %3 = alloca %"class.vcg::Point3", align 4
  %4 = alloca ptr, align 8
  %5 = alloca ptr, align 8
  %6 = alloca { <2 x float>, float }, align 8
  store ptr %0, ptr %4, align 8
  store ptr %1, ptr %5, align 8
  %7 = load ptr, ptr %4, align 8
  %8 = getelementptr inbounds %"class.vcg::Point3", ptr %7, i32 0, i32 0
  %9 = getelementptr inbounds [3 x float], ptr %8, i64 0, i64 0
  %10 = load float, ptr %9, align 4
  %11 = load ptr, ptr %5, align 8
  %12 = getelementptr inbounds %"class.vcg::Point3", ptr %11, i32 0, i32 0
  %13 = getelementptr inbounds [3 x float], ptr %12, i64 0, i64 0
  %14 = load float, ptr %13, align 4
  %15 = fadd float %10, %14
  %16 = getelementptr inbounds %"class.vcg::Point3", ptr %7, i32 0, i32 0
  %17 = getelementptr inbounds [3 x float], ptr %16, i64 0, i64 1
  %18 = load float, ptr %17, align 4
  %19 = load ptr, ptr %5, align 8
  %20 = getelementptr inbounds %"class.vcg::Point3", ptr %19, i32 0, i32 0
  %21 = getelementptr inbounds [3 x float], ptr %20, i64 0, i64 1
  %22 = load float, ptr %21, align 4
  %23 = fadd float %18, %22
  %24 = getelementptr inbounds %"class.vcg::Point3", ptr %7, i32 0, i32 0
  %25 = getelementptr inbounds [3 x float], ptr %24, i64 0, i64 2
  %26 = load float, ptr %25, align 4
  %27 = load ptr, ptr %5, align 8
  %28 = getelementptr inbounds %"class.vcg::Point3", ptr %27, i32 0, i32 0
  %29 = getelementptr inbounds [3 x float], ptr %28, i64 0, i64 2
  %30 = load float, ptr %29, align 4
  %31 = fadd float %26, %30
  call void @_ZN3vcg6Point3IfEC2Efff(ptr noundef nonnull align 4 dereferenceable(12) %3, float noundef %15, float noundef %23, float noundef %31)
  %32 = getelementptr inbounds %"class.vcg::Point3", ptr %3, i32 0, i32 0
  call void @llvm.memcpy.p0.p0.i64(ptr align 8 %6, ptr align 4 %32, i64 12, i1 false)
  %33 = load { <2 x float>, float }, ptr %6, align 8
  ret { <2 x float>, float } %33
}

; Function Attrs: mustprogress uwtable
define linkonce_odr { <2 x float>, float } @_ZNK3vcg6Point3IfEmlEf(ptr noundef nonnull align 4 dereferenceable(12) %0, float noundef %1) #5 comdat align 2 {
  %3 = alloca %"class.vcg::Point3", align 4
  %4 = alloca ptr, align 8
  %5 = alloca float, align 4
  %6 = alloca { <2 x float>, float }, align 8
  store ptr %0, ptr %4, align 8
  store float %1, ptr %5, align 4
  %7 = load ptr, ptr %4, align 8
  %8 = getelementptr inbounds %"class.vcg::Point3", ptr %7, i32 0, i32 0
  %9 = getelementptr inbounds [3 x float], ptr %8, i64 0, i64 0
  %10 = load float, ptr %9, align 4
  %11 = load float, ptr %5, align 4
  %12 = fmul float %10, %11
  %13 = getelementptr inbounds %"class.vcg::Point3", ptr %7, i32 0, i32 0
  %14 = getelementptr inbounds [3 x float], ptr %13, i64 0, i64 1
  %15 = load float, ptr %14, align 4
  %16 = load float, ptr %5, align 4
  %17 = fmul float %15, %16
  %18 = getelementptr inbounds %"class.vcg::Point3", ptr %7, i32 0, i32 0
  %19 = getelementptr inbounds [3 x float], ptr %18, i64 0, i64 2
  %20 = load float, ptr %19, align 4
  %21 = load float, ptr %5, align 4
  %22 = fmul float %20, %21
  call void @_ZN3vcg6Point3IfEC2Efff(ptr noundef nonnull align 4 dereferenceable(12) %3, float noundef %12, float noundef %17, float noundef %22)
  %23 = getelementptr inbounds %"class.vcg::Point3", ptr %3, i32 0, i32 0
  call void @llvm.memcpy.p0.p0.i64(ptr align 8 %6, ptr align 4 %23, i64 12, i1 false)
  %24 = load { <2 x float>, float }, ptr %6, align 8
  ret { <2 x float>, float } %24
}

; Function Attrs: mustprogress nounwind uwtable
define linkonce_odr noundef nonnull align 4 dereferenceable(4) ptr @_ZN3vcg6Point3IfEixEi(ptr noundef nonnull align 4 dereferenceable(12) %0, i32 noundef %1) #4 comdat align 2 {
  %3 = alloca ptr, align 8
  %4 = alloca i32, align 4
  store ptr %0, ptr %3, align 8
  store i32 %1, ptr %4, align 4
  %5 = load ptr, ptr %3, align 8
  %6 = getelementptr inbounds %"class.vcg::Point3", ptr %5, i32 0, i32 0
  %7 = load i32, ptr %4, align 4
  %8 = sext i32 %7 to i64
  %9 = getelementptr inbounds [3 x float], ptr %6, i64 0, i64 %8
  ret ptr %9
}

; Function Attrs: mustprogress uwtable
define linkonce_odr noundef nonnull align 4 dereferenceable(12) ptr @_ZN3vcg4face9VertexRefINS_6Arity1INS_8FaceBaseI11CUsedTypesOEENS0_7InfoOcfEEEE1PEi(ptr noundef nonnull align 8 dereferenceable(32) %0, i32 noundef %1) #5 comdat align 2 {
  %3 = alloca ptr, align 8
  %4 = alloca i32, align 4
  store ptr %0, ptr %3, align 8
  store i32 %1, ptr %4, align 4
  %5 = load ptr, ptr %3, align 8
  %6 = getelementptr inbounds %"class.vcg::face::VertexRef", ptr %5, i32 0, i32 1
  %7 = load i32, ptr %4, align 4
  %8 = sext i32 %7 to i64
  %9 = getelementptr inbounds [3 x ptr], ptr %6, i64 0, i64 %8
  %10 = load ptr, ptr %9, align 8
  %11 = call noundef nonnull align 4 dereferenceable(12) ptr @_ZN3vcg6vertex5CoordINS_6Point3IfEENS_6Arity1INS0_9EmptyCoreI11CUsedTypesOEENS0_7InfoOcfEEEE1PEv(ptr noundef nonnull align 8 dereferenceable(20) %10)
  ret ptr %11
}

; Function Attrs: mustprogress nounwind uwtable
define linkonce_odr void @_ZN3vcg6Point3IfEC2Ev(ptr noundef nonnull align 4 dereferenceable(12) %0) unnamed_addr #4 comdat align 2 {
  %2 = alloca ptr, align 8
  store ptr %0, ptr %2, align 8
  ret void
}

; Function Attrs: mustprogress uwtable
define { <2 x float>, float } @_Z13fromBarCoordsN3vcg6Point3IfEEP6CFaceO(<2 x float> %0, float %1, ptr noundef %2) #13 {
  %4 = alloca %"class.vcg::Point3", align 4
  %5 = alloca %"class.vcg::Point3", align 4
  %6 = alloca { <2 x float>, float }, align 4
  %7 = alloca ptr, align 8
  %8 = alloca %"class.vcg::Point3", align 4
  %9 = alloca %"class.vcg::Point3", align 4
  %10 = alloca %"class.vcg::Point3", align 4
  %11 = alloca { <2 x float>, float }, align 8
  %12 = alloca %"class.vcg::Point3", align 4
  %13 = alloca { <2 x float>, float }, align 8
  %14 = alloca { <2 x float>, float }, align 8
  %15 = alloca %"class.vcg::Point3", align 4
  %16 = alloca { <2 x float>, float }, align 8
  %17 = alloca { <2 x float>, float }, align 8
  %18 = alloca { <2 x float>, float }, align 8
  %19 = getelementptr inbounds { <2 x float>, float }, ptr %6, i32 0, i32 0
  store <2 x float> %0, ptr %19, align 4
  %20 = getelementptr inbounds { <2 x float>, float }, ptr %6, i32 0, i32 1
  store float %1, ptr %20, align 4
  call void @llvm.memcpy.p0.p0.i64(ptr align 4 %5, ptr align 4 %6, i64 12, i1 false)
  store ptr %2, ptr %7, align 8
  call void @_ZN3vcg6Point3IfEC2Ev(ptr noundef nonnull align 4 dereferenceable(12) %4)
  %21 = load ptr, ptr %7, align 8
  %22 = call noundef nonnull align 4 dereferenceable(12) ptr @_ZN3vcg4face9VertexRefINS_6Arity1INS_8FaceBaseI11CUsedTypesOEENS0_7InfoOcfEEEE1PEi(ptr noundef nonnull align 8 dereferenceable(32) %21, i32 noundef 0)
  %23 = call noundef nonnull align 4 dereferenceable(4) ptr @_ZN3vcg6Point3IfEixEi(ptr noundef nonnull align 4 dereferenceable(12) %5, i32 noundef 0)
  %24 = load float, ptr %23, align 4
  %25 = call { <2 x float>, float } @_ZNK3vcg6Point3IfEmlEf(ptr noundef nonnull align 4 dereferenceable(12) %22, float noundef %24)
  %26 = getelementptr inbounds %"class.vcg::Point3", ptr %10, i32 0, i32 0
  store { <2 x float>, float } %25, ptr %11, align 8
  call void @llvm.memcpy.p0.p0.i64(ptr align 4 %26, ptr align 8 %11, i64 12, i1 false)
  %27 = load ptr, ptr %7, align 8
  %28 = call noundef nonnull align 4 dereferenceable(12) ptr @_ZN3vcg4face9VertexRefINS_6Arity1INS_8FaceBaseI11CUsedTypesOEENS0_7InfoOcfEEEE1PEi(ptr noundef nonnull align 8 dereferenceable(32) %27, i32 noundef 1)
  %29 = call noundef nonnull align 4 dereferenceable(4) ptr @_ZN3vcg6Point3IfEixEi(ptr noundef nonnull align 4 dereferenceable(12) %5, i32 noundef 1)
  %30 = load float, ptr %29, align 4
  %31 = call { <2 x float>, float } @_ZNK3vcg6Point3IfEmlEf(ptr noundef nonnull align 4 dereferenceable(12) %28, float noundef %30)
  %32 = getelementptr inbounds %"class.vcg::Point3", ptr %12, i32 0, i32 0
  store { <2 x float>, float } %31, ptr %13, align 8
  call void @llvm.memcpy.p0.p0.i64(ptr align 4 %32, ptr align 8 %13, i64 12, i1 false)
  %33 = call { <2 x float>, float } @_ZNK3vcg6Point3IfEplERKS1_(ptr noundef nonnull align 4 dereferenceable(12) %10, ptr noundef nonnull align 4 dereferenceable(12) %12)
  %34 = getelementptr inbounds %"class.vcg::Point3", ptr %9, i32 0, i32 0
  store { <2 x float>, float } %33, ptr %14, align 8
  call void @llvm.memcpy.p0.p0.i64(ptr align 4 %34, ptr align 8 %14, i64 12, i1 false)
  %35 = load ptr, ptr %7, align 8
  %36 = call noundef nonnull align 4 dereferenceable(12) ptr @_ZN3vcg4face9VertexRefINS_6Arity1INS_8FaceBaseI11CUsedTypesOEENS0_7InfoOcfEEEE1PEi(ptr noundef nonnull align 8 dereferenceable(32) %35, i32 noundef 2)
  %37 = call noundef nonnull align 4 dereferenceable(4) ptr @_ZN3vcg6Point3IfEixEi(ptr noundef nonnull align 4 dereferenceable(12) %5, i32 noundef 2)
  %38 = load float, ptr %37, align 4
  %39 = call { <2 x float>, float } @_ZNK3vcg6Point3IfEmlEf(ptr noundef nonnull align 4 dereferenceable(12) %36, float noundef %38)
  %40 = getelementptr inbounds %"class.vcg::Point3", ptr %15, i32 0, i32 0
  store { <2 x float>, float } %39, ptr %16, align 8
  call void @llvm.memcpy.p0.p0.i64(ptr align 4 %40, ptr align 8 %16, i64 12, i1 false)
  %41 = call { <2 x float>, float } @_ZNK3vcg6Point3IfEplERKS1_(ptr noundef nonnull align 4 dereferenceable(12) %9, ptr noundef nonnull align 4 dereferenceable(12) %15)
  %42 = getelementptr inbounds %"class.vcg::Point3", ptr %8, i32 0, i32 0
  store { <2 x float>, float } %41, ptr %17, align 8
  call void @llvm.memcpy.p0.p0.i64(ptr align 4 %42, ptr align 8 %17, i64 12, i1 false)
  call void @llvm.memcpy.p0.p0.i64(ptr align 4 %4, ptr align 4 %8, i64 12, i1 false)
  %43 = getelementptr inbounds %"class.vcg::Point3", ptr %4, i32 0, i32 0
  call void @llvm.memcpy.p0.p0.i64(ptr align 8 %18, ptr align 4 %43, i64 12, i1 false)
  %44 = load { <2 x float>, float }, ptr %18, align 8
  ret { <2 x float>, float } %44
}