; Function Attrs: mustprogress nofree norecurse nosync nounwind willreturn memory(read, inaccessiblemem: none) uwtable
define { <2 x float>, float } @_Z13fromBarCoordsN3vcg6Point3IfEEP6CFaceO(<2 x float> %0, float %1, ptr nocapture noundef readonly %2) local_unnamed_addr #16 {
  %4 = getelementptr inbounds i8, ptr %2, i64 8
  %5 = load ptr, ptr %4, align 8
  %6 = getelementptr inbounds i8, ptr %5, i64 8
  %7 = getelementptr inbounds i8, ptr %5, i64 16
  %8 = load float, ptr %7, align 4
  %9 = getelementptr inbounds i8, ptr %2, i64 16
  %10 = load ptr, ptr %9, align 8
  %11 = getelementptr inbounds i8, ptr %10, i64 8
  %12 = getelementptr inbounds i8, ptr %10, i64 16
  %13 = load float, ptr %12, align 4
  %14 = insertelement <2 x float> poison, float %8, i64 0
  %15 = insertelement <2 x float> %14, float %13, i64 1
  %16 = fmul <2 x float> %15, %0
  %shift = shufflevector <2 x float> %16, <2 x float> poison, <2 x i32> <i32 1, i32 poison>
  %17 = fadd <2 x float> %16, %shift
  %18 = extractelement <2 x float> %17, i64 0
  %19 = getelementptr inbounds i8, ptr %2, i64 24
  %20 = load ptr, ptr %19, align 8
  %21 = getelementptr inbounds i8, ptr %20, i64 8
  %22 = getelementptr inbounds i8, ptr %20, i64 16
  %23 = load float, ptr %22, align 4
  %24 = fmul float %23, %1
  %25 = load <2 x float>, ptr %6, align 4
  %26 = shufflevector <2 x float> %0, <2 x float> poison, <2 x i32> zeroinitializer
  %27 = fmul <2 x float> %26, %25
  %28 = load <2 x float>, ptr %11, align 4
  %29 = shufflevector <2 x float> %0, <2 x float> poison, <2 x i32> <i32 1, i32 1>
  %30 = fmul <2 x float> %29, %28
  %31 = fadd <2 x float> %27, %30
  %32 = load <2 x float>, ptr %21, align 4
  %33 = insertelement <2 x float> poison, float %1, i64 0
  %34 = shufflevector <2 x float> %33, <2 x float> poison, <2 x i32> zeroinitializer
  %35 = fmul <2 x float> %32, %34
  %36 = fadd <2 x float> %31, %35
  %37 = fadd float %18, %24
  %.fca.0.insert.i39 = insertvalue { <2 x float>, float } poison, <2 x float> %36, 0
  %.fca.1.insert.i40 = insertvalue { <2 x float>, float } %.fca.0.insert.i39, float %37, 1
  ret { <2 x float>, float } %.fca.1.insert.i40
}